target datalayout = "e-m:e-p270:32:32-p271:32:32-p272:64:64-i64:64-i128:128-f80:128-n8:16:32:64-S128"
target triple = "x86_64-unknown-linux-gnu"

%"class.cvc5::internal::NodeTemplate" = type { ptr }
%"struct.std::_Vector_base.381" = type { %"struct.std::_Vector_base<cvc5::internal::NodeTemplate<true>, std::allocator<cvc5::internal::NodeTemplate<true>>>::_Vector_impl" }
%"struct.std::_Vector_base<cvc5::internal::NodeTemplate<true>, std::allocator<cvc5::internal::NodeTemplate<true>>>::_Vector_impl" = type { %"struct.std::_Vector_base<cvc5::internal::NodeTemplate<true>, std::allocator<cvc5::internal::NodeTemplate<true>>>::_Vector_impl_data" }
%"struct.std::_Vector_base<cvc5::internal::NodeTemplate<true>, std::allocator<cvc5::internal::NodeTemplate<true>>>::_Vector_impl_data" = type { ptr, ptr, ptr }

; Function Attrs: mustprogress uwtable
define linkonce_odr hidden void @_ZN4cvc58internal4expr9NodeValue3incEv(ptr noundef nonnull align 8 dereferenceable(16) %this) #4 comdat align 2 {
entry:
  %this.addr = alloca ptr, align 8
  store ptr %this, ptr %this.addr, align 8
  %this1 = load ptr, ptr %this.addr, align 8
  %bf.load = load i64, ptr %this1, align 8
  %bf.lshr = lshr i64 %bf.load, 40
  %bf.clear = and i64 %bf.lshr, 1048575
  %bf.cast = trunc i64 %bf.clear to i32
  %cmp = icmp ult i32 %bf.cast, 1048574
  br i1 %cmp, label %if.then, label %if.else

if.then:                                          ; preds = %entry
  %bf.load2 = load i64, ptr %this1, align 8
  %bf.lshr3 = lshr i64 %bf.load2, 40
  %bf.clear4 = and i64 %bf.lshr3, 1048575
  %bf.cast5 = trunc i64 %bf.clear4 to i32
  %inc = add i32 %bf.cast5, 1
  %0 = zext i32 %inc to i64
  %bf.load6 = load i64, ptr %this1, align 8
  %bf.value = and i64 %0, 1048575
  %bf.shl = shl i64 %bf.value, 40
  %bf.clear7 = and i64 %bf.load6, -1152920405095219201
  %bf.set = or i64 %bf.clear7, %bf.shl
  store i64 %bf.set, ptr %this1, align 8
  br label %if.end25

if.else:                                          ; preds = %entry
  %bf.load8 = load i64, ptr %this1, align 8
  %bf.lshr9 = lshr i64 %bf.load8, 40
  %bf.clear10 = and i64 %bf.lshr9, 1048575
  %bf.cast11 = trunc i64 %bf.clear10 to i32
  %cmp12 = icmp eq i32 %bf.cast11, 1048574
  br i1 %cmp12, label %if.then13, label %if.end

if.then13:                                        ; preds = %if.else
  %bf.load14 = load i64, ptr %this1, align 8
  %bf.lshr15 = lshr i64 %bf.load14, 40
  %bf.clear16 = and i64 %bf.lshr15, 1048575
  %bf.cast17 = trunc i64 %bf.clear16 to i32
  %inc18 = add i32 %bf.cast17, 1
  %1 = zext i32 %inc18 to i64
  %bf.load19 = load i64, ptr %this1, align 8
  %bf.value20 = and i64 %1, 1048575
  %bf.shl21 = shl i64 %bf.value20, 40
  %bf.clear22 = and i64 %bf.load19, -1152920405095219201
  %bf.set23 = or i64 %bf.clear22, %bf.shl21
  store i64 %bf.set23, ptr %this1, align 8
  call void @_ZN4cvc58internal4expr9NodeValue20markRefCountMaxedOutEv(ptr noundef nonnull align 8 dereferenceable(16) %this1)
  br label %if.end

if.end:                                           ; preds = %if.then13, %if.else
  br label %if.end25

if.end25:                                         ; preds = %if.end, %if.then
  ret void
}

; Function Attrs: mustprogress uwtable
define linkonce_odr hidden void @_ZN4cvc58internal4expr9NodeValue3decEv(ptr noundef nonnull align 8 dereferenceable(16) %this) #4 comdat align 2 {
entry:
  %this.addr = alloca ptr, align 8
  store ptr %this, ptr %this.addr, align 8
  %this1 = load ptr, ptr %this.addr, align 8
  %bf.load = load i64, ptr %this1, align 8
  %bf.lshr = lshr i64 %bf.load, 40
  %bf.clear = and i64 %bf.lshr, 1048575
  %bf.cast = trunc i64 %bf.clear to i32
  %cmp = icmp ult i32 %bf.cast, 1048575
  br i1 %cmp, label %if.then, label %if.end14

if.then:                                          ; preds = %entry
  %bf.load2 = load i64, ptr %this1, align 8
  %bf.lshr3 = lshr i64 %bf.load2, 40
  %bf.clear4 = and i64 %bf.lshr3, 1048575
  %bf.cast5 = trunc i64 %bf.clear4 to i32
  %dec = add i32 %bf.cast5, -1
  %0 = zext i32 %dec to i64
  %bf.load6 = load i64, ptr %this1, align 8
  %bf.value = and i64 %0, 1048575
  %bf.shl = shl i64 %bf.value, 40
  %bf.clear7 = and i64 %bf.load6, -1152920405095219201
  %bf.set = or i64 %bf.clear7, %bf.shl
  store i64 %bf.set, ptr %this1, align 8
  %bf.load8 = load i64, ptr %this1, align 8
  %bf.lshr9 = lshr i64 %bf.load8, 40
  %bf.clear10 = and i64 %bf.lshr9, 1048575
  %bf.cast11 = trunc i64 %bf.clear10 to i32
  %cmp12 = icmp eq i32 %bf.cast11, 0
  br i1 %cmp12, label %if.then13, label %if.end

if.then13:                                        ; preds = %if.then
  call void @_ZN4cvc58internal4expr9NodeValue15markForDeletionEv(ptr noundef nonnull align 8 dereferenceable(16) %this1)
  br label %if.end

if.end:                                           ; preds = %if.then13, %if.then
  br label %if.end14

if.end14:                                         ; preds = %if.end, %entry
  ret void
}

; Function Attrs: mustprogress uwtable
define linkonce_odr hidden noundef nonnull align 8 dereferenceable(8) ptr @_ZN4cvc58internal12NodeTemplateILb1EEaSERKS2_(ptr noundef nonnull align 8 dereferenceable(8) %this, ptr noundef nonnull align 8 dereferenceable(8) %e) #4 comdat align 2 {
entry:
  %this.addr = alloca ptr, align 8
  %e.addr = alloca ptr, align 8
  store ptr %this, ptr %this.addr, align 8
  store ptr %e, ptr %e.addr, align 8
  %this1 = load ptr, ptr %this.addr, align 8
  %d_nv = getelementptr inbounds %"class.cvc5::internal::NodeTemplate", ptr %this1, i32 0, i32 0
  %0 = load ptr, ptr %d_nv, align 8
  %1 = load ptr, ptr %e.addr, align 8
  %d_nv2 = getelementptr inbounds %"class.cvc5::internal::NodeTemplate", ptr %1, i32 0, i32 0
  %2 = load ptr, ptr %d_nv2, align 8
  %cmp = icmp ne ptr %0, %2
  br i1 %cmp, label %if.then, label %if.end

if.then:                                          ; preds = %entry
  %d_nv3 = getelementptr inbounds %"class.cvc5::internal::NodeTemplate", ptr %this1, i32 0, i32 0
  %3 = load ptr, ptr %d_nv3, align 8
  call void @_ZN4cvc58internal4expr9NodeValue3decEv(ptr noundef nonnull align 8 dereferenceable(16) %3)
  %4 = load ptr, ptr %e.addr, align 8
  %d_nv4 = getelementptr inbounds %"class.cvc5::internal::NodeTemplate", ptr %4, i32 0, i32 0
  %5 = load ptr, ptr %d_nv4, align 8
  %d_nv5 = getelementptr inbounds %"class.cvc5::internal::NodeTemplate", ptr %this1, i32 0, i32 0
  store ptr %5, ptr %d_nv5, align 8
  %d_nv6 = getelementptr inbounds %"class.cvc5::internal::NodeTemplate", ptr %this1, i32 0, i32 0
  %6 = load ptr, ptr %d_nv6, align 8
  call void @_ZN4cvc58internal4expr9NodeValue3incEv(ptr noundef nonnull align 8 dereferenceable(16) %6)
  br label %if.end

if.end:                                           ; preds = %if.then, %entry
  ret ptr %this1
}

; Function Attrs: mustprogress nounwind uwtable
define linkonce_odr hidden noundef nonnull align 8 dereferenceable(8) ptr @_ZNSt6vectorIN4cvc58internal12NodeTemplateILb1EEESaIS3_EEixEm(ptr noundef nonnull align 8 dereferenceable(24) %this, i64 noundef %__n) #5 comdat align 2 {
entry:
  %this.addr = alloca ptr, align 8
  %__n.addr = alloca i64, align 8
  store ptr %this, ptr %this.addr, align 8
  store i64 %__n, ptr %__n.addr, align 8
  %this1 = load ptr, ptr %this.addr, align 8
  %_M_impl = getelementptr inbounds %"struct.std::_Vector_base.381", ptr %this1, i32 0, i32 0
  %_M_start = getelementptr inbounds %"struct.std::_Vector_base<cvc5::internal::NodeTemplate<true>, std::allocator<cvc5::internal::NodeTemplate<true>>>::_Vector_impl_data", ptr %_M_impl, i32 0, i32 0
  %0 = load ptr, ptr %_M_start, align 8
  %1 = load i64, ptr %__n.addr, align 8
  %add.ptr = getelementptr inbounds %"class.cvc5::internal::NodeTemplate", ptr %0, i64 %1
  ret ptr %add.ptr
}

; Function Attrs: mustprogress nounwind uwtable
define linkonce_odr hidden noundef i64 @_ZNKSt6vectorIN4cvc58internal12NodeTemplateILb1EEESaIS3_EE4sizeEv(ptr noundef nonnull align 8 dereferenceable(24) %this) #5 comdat align 2 {
entry:
  %this.addr = alloca ptr, align 8
  store ptr %this, ptr %this.addr, align 8
  %this1 = load ptr, ptr %this.addr, align 8
  %_M_impl = getelementptr inbounds %"struct.std::_Vector_base.381", ptr %this1, i32 0, i32 0
  %_M_finish = getelementptr inbounds %"struct.std::_Vector_base<cvc5::internal::NodeTemplate<true>, std::allocator<cvc5::internal::NodeTemplate<true>>>::_Vector_impl_data", ptr %_M_impl, i32 0, i32 1
  %0 = load ptr, ptr %_M_finish, align 8
  %_M_impl2 = getelementptr inbounds %"struct.std::_Vector_base.381", ptr %this1, i32 0, i32 0
  %_M_start = getelementptr inbounds %"struct.std::_Vector_base<cvc5::internal::NodeTemplate<true>, std::allocator<cvc5::internal::NodeTemplate<true>>>::_Vector_impl_data", ptr %_M_impl2, i32 0, i32 0
  %1 = load ptr, ptr %_M_start, align 8
  %sub.ptr.lhs.cast = ptrtoint ptr %0 to i64
  %sub.ptr.rhs.cast = ptrtoint ptr %1 to i64
  %sub.ptr.sub = sub i64 %sub.ptr.lhs.cast, %sub.ptr.rhs.cast
  %sub.ptr.div = sdiv exact i64 %sub.ptr.sub, 8
  ret i64 %sub.ptr.div
}

; Function Attrs: mustprogress uwtable
define hidden void @_ZN4cvc58internal3smt12Preprocessor18applySubstitutionsERSt6vectorINS0_12NodeTemplateILb1EEESaIS5_EE(ptr noundef nonnull align 8 dereferenceable(712) %this, ptr noundef nonnull align 8 dereferenceable(24) %ns) #4 align 2 personality ptr @__gxx_personality_v0 {
entry:
  %this.addr = alloca ptr, align 8
  %ns.addr = alloca ptr, align 8
  %i = alloca i64, align 8
  %nasserts = alloca i64, align 8
  %ref.tmp = alloca %"class.cvc5::internal::NodeTemplate", align 8
  %exn.slot = alloca ptr, align 8
  %ehselector.slot = alloca i32, align 4
  store ptr %this, ptr %this.addr, align 8
  store ptr %ns, ptr %ns.addr, align 8
  %this1 = load ptr, ptr %this.addr, align 8
  store i64 0, ptr %i, align 8
  %0 = load ptr, ptr %ns.addr, align 8
  %call = call noundef i64 @_ZNKSt6vectorIN4cvc58internal12NodeTemplateILb1EEESaIS3_EE4sizeEv(ptr noundef nonnull align 8 dereferenceable(24) %0) #3
  store i64 %call, ptr %nasserts, align 8
  br label %for.cond

for.cond:                                         ; preds = %for.inc, %entry
  %1 = load i64, ptr %i, align 8
  %2 = load i64, ptr %nasserts, align 8
  %cmp = icmp ult i64 %1, %2
  br i1 %cmp, label %for.body, label %for.end

for.body:                                         ; preds = %for.cond
  %3 = load ptr, ptr %ns.addr, align 8
  %4 = load i64, ptr %i, align 8
  %call2 = call noundef nonnull align 8 dereferenceable(8) ptr @_ZNSt6vectorIN4cvc58internal12NodeTemplateILb1EEESaIS3_EEixEm(ptr noundef nonnull align 8 dereferenceable(24) %3, i64 noundef %4) #3
  call void @_ZN4cvc58internal3smt12Preprocessor18applySubstitutionsERKNS0_12NodeTemplateILb1EEE(ptr sret(%"class.cvc5::internal::NodeTemplate") align 8 %ref.tmp, ptr noundef nonnull align 8 dereferenceable(712) %this1, ptr noundef nonnull align 8 dereferenceable(8) %call2)
  %5 = load ptr, ptr %ns.addr, align 8
  %6 = load i64, ptr %i, align 8
  %call3 = call noundef nonnull align 8 dereferenceable(8) ptr @_ZNSt6vectorIN4cvc58internal12NodeTemplateILb1EEESaIS3_EEixEm(ptr noundef nonnull align 8 dereferenceable(24) %5, i64 noundef %6) #3
  %call4 = invoke noundef nonnull align 8 dereferenceable(8) ptr @_ZN4cvc58internal12NodeTemplateILb1EEaSERKS2_(ptr noundef nonnull align 8 dereferenceable(8) %call3, ptr noundef nonnull align 8 dereferenceable(8) %ref.tmp)
          to label %invoke.cont unwind label %lpad

invoke.cont:                                      ; preds = %for.body
  call void @_ZN4cvc58internal12NodeTemplateILb1EED2Ev(ptr noundef nonnull align 8 dereferenceable(8) %ref.tmp) #3
  br label %for.inc

for.inc:                                          ; preds = %invoke.cont
  %7 = load i64, ptr %i, align 8
  %inc = add i64 %7, 1
  store i64 %inc, ptr %i, align 8
  br label %for.cond, !llvm.loop !4

lpad:                                             ; preds = %for.body
  %8 = landingpad { ptr, i32 }
          cleanup
  %9 = extractvalue { ptr, i32 } %8, 0
  store ptr %9, ptr %exn.slot, align 8
  %10 = extractvalue { ptr, i32 } %8, 1
  store i32 %10, ptr %ehselector.slot, align 4
  call void @_ZN4cvc58internal12NodeTemplateILb1EED2Ev(ptr noundef nonnull align 8 dereferenceable(8) %ref.tmp) #3
  br label %eh.resume

for.end:                                          ; preds = %for.cond
  ret void

eh.resume:                                        ; preds = %lpad
  %exn = load ptr, ptr %exn.slot, align 8
  %sel = load i32, ptr %ehselector.slot, align 4
  %lpad.val = insertvalue { ptr, i32 } poison, ptr %exn, 0
  %lpad.val5 = insertvalue { ptr, i32 } %lpad.val, i32 %sel, 1
  resume { ptr, i32 } %lpad.val5
}