; Function Attrs: mustprogress uwtable
define hidden void @_ZN4cvc58internal3smt12Preprocessor18applySubstitutionsERSt6vectorINS0_12NodeTemplateILb1EEESaIS5_EE(ptr nocapture noundef nonnull readonly align 8 dereferenceable(712) %this, ptr nocapture noundef nonnull readonly align 8 dereferenceable(24) %ns) local_unnamed_addr #3 align 2 personality ptr @__gxx_personality_v0 {
entry:
  %ref.tmp = alloca %"class.cvc5::internal::NodeTemplate", align 8
  %_M_finish.i = getelementptr inbounds i8, ptr %ns, i64 8
  %0 = load ptr, ptr %_M_finish.i, align 8
  %1 = load ptr, ptr %ns, align 8
  %cmp17.not = icmp eq ptr %0, %1
  br i1 %cmp17.not, label %for.end, label %for.body.preheader

for.body.preheader:                               ; preds = %entry
  %sub.ptr.lhs.cast.i = ptrtoint ptr %0 to i64
  %sub.ptr.rhs.cast.i = ptrtoint ptr %1 to i64
  %sub.ptr.sub.i = sub i64 %sub.ptr.lhs.cast.i, %sub.ptr.rhs.cast.i
  %sub.ptr.div.i = ashr exact i64 %sub.ptr.sub.i, 3
  %umax = tail call i64 @llvm.umax.i64(i64 %sub.ptr.div.i, i64 1)
  br label %for.body

for.body:                                         ; preds = %for.body.preheader, %_ZN4cvc58internal12NodeTemplateILb1EED2Ev.exit
  %i.018 = phi i64 [ %inc, %_ZN4cvc58internal12NodeTemplateILb1EED2Ev.exit ], [ 0, %for.body.preheader ]
  %2 = load ptr, ptr %ns, align 8
  %add.ptr.i = getelementptr inbounds %"class.cvc5::internal::NodeTemplate", ptr %2, i64 %i.018
  call void @_ZN4cvc58internal3smt12Preprocessor18applySubstitutionsERKNS0_12NodeTemplateILb1EEE(ptr nonnull sret(%"class.cvc5::internal::NodeTemplate") align 8 %ref.tmp, ptr noundef nonnull align 8 dereferenceable(712) %this, ptr noundef nonnull align 8 dereferenceable(8) %add.ptr.i)
  %3 = load ptr, ptr %ns, align 8
  %add.ptr.i6 = getelementptr inbounds %"class.cvc5::internal::NodeTemplate", ptr %3, i64 %i.018
  %4 = load ptr, ptr %add.ptr.i6, align 8
  %5 = load ptr, ptr %ref.tmp, align 8
  %cmp.not.i = icmp eq ptr %4, %5
  br i1 %cmp.not.i, label %invoke.cont, label %if.then.i

if.then.i:                                        ; preds = %for.body
  %bf.load.i.i = load i64, ptr %4, align 8
  %6 = and i64 %bf.load.i.i, 1152920405095219200
  %cmp.not.i.i = icmp eq i64 %6, 1152920405095219200
  br i1 %cmp.not.i.i, label %_ZN4cvc58internal4expr9NodeValue3decEv.exit.i, label %if.then.i.i

if.then.i.i:                                      ; preds = %if.then.i
  %bf.value.i.i = add i64 %bf.load.i.i, 1152920405095219200
  %bf.shl.i.i = and i64 %bf.value.i.i, 1152920405095219200
  %bf.clear7.i.i = and i64 %bf.load.i.i, -1152920405095219201
  %bf.set.i.i = or disjoint i64 %bf.shl.i.i, %bf.clear7.i.i
  store i64 %bf.set.i.i, ptr %4, align 8
  %cmp12.i.i = icmp eq i64 %bf.shl.i.i, 0
  br i1 %cmp12.i.i, label %if.then13.i.i, label %_ZN4cvc58internal4expr9NodeValue3decEv.exit.i

if.then13.i.i:                                    ; preds = %if.then.i.i
  invoke void @_ZN4cvc58internal4expr9NodeValue15markForDeletionEv(ptr noundef nonnull align 8 dereferenceable(16) %4)
          to label %_ZN4cvc58internal4expr9NodeValue3decEv.exit.i unwind label %lpad

_ZN4cvc58internal4expr9NodeValue3decEv.exit.i:    ; preds = %if.then13.i.i, %if.then.i.i, %if.then.i
  %7 = load ptr, ptr %ref.tmp, align 8
  store ptr %7, ptr %add.ptr.i6, align 8
  %bf.load.i2.i = load i64, ptr %7, align 8
  %bf.lshr.i.i = lshr i64 %bf.load.i2.i, 40
  %8 = trunc i64 %bf.lshr.i.i to i32
  %bf.cast.i.i = and i32 %8, 1048575
  %cmp.i.i = icmp ult i32 %bf.cast.i.i, 1048574
  br i1 %cmp.i.i, label %if.then.i5.i, label %if.else.i.i

if.then.i5.i:                                     ; preds = %_ZN4cvc58internal4expr9NodeValue3decEv.exit.i
  %bf.value.i6.i = add i64 %bf.load.i2.i, 1099511627776
  %bf.shl.i7.i = and i64 %bf.value.i6.i, 1152920405095219200
  %bf.clear7.i8.i = and i64 %bf.load.i2.i, -1152920405095219201
  %bf.set.i9.i = or disjoint i64 %bf.shl.i7.i, %bf.clear7.i8.i
  store i64 %bf.set.i9.i, ptr %7, align 8
  br label %invoke.cont

if.else.i.i:                                      ; preds = %_ZN4cvc58internal4expr9NodeValue3decEv.exit.i
  %cmp12.i3.i = icmp eq i32 %bf.cast.i.i, 1048574
  br i1 %cmp12.i3.i, label %if.then13.i4.i, label %invoke.cont

if.then13.i4.i:                                   ; preds = %if.else.i.i
  %bf.set23.i.i = or i64 %bf.load.i2.i, 1152920405095219200
  store i64 %bf.set23.i.i, ptr %7, align 8
  invoke void @_ZN4cvc58internal4expr9NodeValue20markRefCountMaxedOutEv(ptr noundef nonnull align 8 dereferenceable(16) %7)
          to label %invoke.cont unwind label %lpad

invoke.cont:                                      ; preds = %if.else.i.i, %if.then.i5.i, %for.body, %if.then13.i4.i
  %9 = load ptr, ptr %ref.tmp, align 8
  %bf.load.i.i8 = load i64, ptr %9, align 8
  %10 = and i64 %bf.load.i.i8, 1152920405095219200
  %cmp.not.i.i9 = icmp eq i64 %10, 1152920405095219200
  br i1 %cmp.not.i.i9, label %_ZN4cvc58internal12NodeTemplateILb1EED2Ev.exit, label %if.then.i.i10

if.then.i.i10:                                    ; preds = %invoke.cont
  %bf.value.i.i11 = add i64 %bf.load.i.i8, 1152920405095219200
  %bf.shl.i.i12 = and i64 %bf.value.i.i11, 1152920405095219200
  %bf.clear7.i.i13 = and i64 %bf.load.i.i8, -1152920405095219201
  %bf.set.i.i14 = or disjoint i64 %bf.shl.i.i12, %bf.clear7.i.i13
  store i64 %bf.set.i.i14, ptr %9, align 8
  %cmp12.i.i15 = icmp eq i64 %bf.shl.i.i12, 0
  br i1 %cmp12.i.i15, label %if.then13.i.i16, label %_ZN4cvc58internal12NodeTemplateILb1EED2Ev.exit

if.then13.i.i16:                                  ; preds = %if.then.i.i10
  invoke void @_ZN4cvc58internal4expr9NodeValue15markForDeletionEv(ptr noundef nonnull align 8 dereferenceable(16) %9)
          to label %_ZN4cvc58internal12NodeTemplateILb1EED2Ev.exit unwind label %terminate.lpad.i

terminate.lpad.i:                                 ; preds = %if.then13.i.i16
  %11 = landingpad { ptr, i32 }
          catch ptr null
  %12 = extractvalue { ptr, i32 } %11, 0
  call void @__clang_call_terminate(ptr %12) #18
  unreachable

_ZN4cvc58internal12NodeTemplateILb1EED2Ev.exit:   ; preds = %invoke.cont, %if.then.i.i10, %if.then13.i.i16
  %inc = add nuw i64 %i.018, 1
  %exitcond.not = icmp eq i64 %inc, %umax
  br i1 %exitcond.not, label %for.end, label %for.body, !llvm.loop !7

lpad:                                             ; preds = %if.then13.i4.i, %if.then13.i.i
  %13 = landingpad { ptr, i32 }
          cleanup
  call void @_ZN4cvc58internal12NodeTemplateILb1EED2Ev(ptr noundef nonnull align 8 dereferenceable(8) %ref.tmp) #17
  resume { ptr, i32 } %13

for.end:                                          ; preds = %_ZN4cvc58internal12NodeTemplateILb1EED2Ev.exit, %entry
  ret void
}